; ModuleID = '9/1260.c'
source_filename = "9/1260.c"
target datalayout = "e-m:e-p270:32:32-p271:32:32-p272:64:64-i64:64-f80:128-n8:16:32:64-S128"
target triple = "x86_64-pc-linux-gnu"

%struct.Ill = type { [10 x i8], i32 }

@.str = private unnamed_addr constant [3 x i8] c"%d\00", align 1
@.str.1 = private unnamed_addr constant [6 x i8] c"%s %d\00", align 1
@.str.2 = private unnamed_addr constant [4 x i8] c"%s\0A\00", align 1

; Function Attrs: noinline nounwind uwtable
define dso_local i32 @main() #0 {
  %1 = alloca i32, align 4
  %2 = alloca i32, align 4
  %3 = alloca i32, align 4
  %4 = alloca i32, align 4
  %5 = alloca i32, align 4
  %6 = alloca i32, align 4
  %7 = alloca i32, align 4
  %8 = alloca [100 x %struct.Ill], align 16
  %9 = alloca [100 x %struct.Ill], align 16
  %10 = alloca %struct.Ill, align 4
  %11 = alloca [100 x %struct.Ill], align 16
  store i32 0, i32* %1, align 4
  store i32 0, i32* %6, align 4
  store i32 0, i32* %7, align 4
  %12 = call i32 (i8*, ...) @__isoc99_scanf(i8* getelementptr inbounds ([3 x i8], [3 x i8]* @.str, i64 0, i64 0), i32* %2)
  store i32 0, i32* %3, align 4
  br label %13

13:                                               ; preds = %28, %0
  %14 = load i32, i32* %3, align 4
  %15 = load i32, i32* %2, align 4
  %16 = icmp slt i32 %14, %15
  br i1 %16, label %17, label %31

17:                                               ; preds = %13
  %18 = load i32, i32* %3, align 4
  %19 = sext i32 %18 to i64
  %20 = getelementptr inbounds [100 x %struct.Ill], [100 x %struct.Ill]* %8, i64 0, i64 %19
  %21 = getelementptr inbounds %struct.Ill, %struct.Ill* %20, i32 0, i32 0
  %22 = getelementptr inbounds [10 x i8], [10 x i8]* %21, i64 0, i64 0
  %23 = load i32, i32* %3, align 4
  %24 = sext i32 %23 to i64
  %25 = getelementptr inbounds [100 x %struct.Ill], [100 x %struct.Ill]* %8, i64 0, i64 %24
  %26 = getelementptr inbounds %struct.Ill, %struct.Ill* %25, i32 0, i32 1
  %27 = call i32 (i8*, ...) @__isoc99_scanf(i8* getelementptr inbounds ([6 x i8], [6 x i8]* @.str.1, i64 0, i64 0), i8* %22, i32* %26)
  br label %28

28:                                               ; preds = %17
  %29 = load i32, i32* %3, align 4
  %30 = add nsw i32 %29, 1
  store i32 %30, i32* %3, align 4
  br label %13

31:                                               ; preds = %13
  store i32 0, i32* %3, align 4
  br label %32

32:                                               ; preds = %55, %31
  %33 = load i32, i32* %3, align 4
  %34 = load i32, i32* %2, align 4
  %35 = icmp slt i32 %33, %34
  br i1 %35, label %36, label %58

36:                                               ; preds = %32
  %37 = load i32, i32* %3, align 4
  %38 = sext i32 %37 to i64
  %39 = getelementptr inbounds [100 x %struct.Ill], [100 x %struct.Ill]* %8, i64 0, i64 %38
  %40 = getelementptr inbounds %struct.Ill, %struct.Ill* %39, i32 0, i32 1
  %41 = load i32, i32* %40, align 4
  %42 = icmp sge i32 %41, 60
  br i1 %42, label %43, label %54

43:                                               ; preds = %36
  %44 = load i32, i32* %7, align 4
  %45 = sext i32 %44 to i64
  %46 = getelementptr inbounds [100 x %struct.Ill], [100 x %struct.Ill]* %11, i64 0, i64 %45
  %47 = load i32, i32* %3, align 4
  %48 = sext i32 %47 to i64
  %49 = getelementptr inbounds [100 x %struct.Ill], [100 x %struct.Ill]* %8, i64 0, i64 %48
  %50 = bitcast %struct.Ill* %46 to i8*
  %51 = bitcast %struct.Ill* %49 to i8*
  call void @llvm.memcpy.p0i8.p0i8.i64(i8* align 16 %50, i8* align 16 %51, i64 16, i1 false)
  %52 = load i32, i32* %7, align 4
  %53 = add nsw i32 %52, 1
  store i32 %53, i32* %7, align 4
  br label %54

54:                                               ; preds = %43, %36
  br label %55

55:                                               ; preds = %54
  %56 = load i32, i32* %3, align 4
  %57 = add nsw i32 %56, 1
  store i32 %57, i32* %3, align 4
  br label %32

58:                                               ; preds = %32
  store i32 0, i32* %3, align 4
  br label %59

59:                                               ; preds = %119, %58
  %60 = load i32, i32* %3, align 4
  %61 = load i32, i32* %7, align 4
  %62 = icmp slt i32 %60, %61
  br i1 %62, label %63, label %122

63:                                               ; preds = %59
  store i32 0, i32* %5, align 4
  store i32 0, i32* %4, align 4
  br label %64

64:                                               ; preds = %83, %63
  %65 = load i32, i32* %4, align 4
  %66 = load i32, i32* %7, align 4
  %67 = icmp slt i32 %65, %66
  br i1 %67, label %68, label %86

68:                                               ; preds = %64
  %69 = load i32, i32* %5, align 4
  %70 = load i32, i32* %4, align 4
  %71 = sext i32 %70 to i64
  %72 = getelementptr inbounds [100 x %struct.Ill], [100 x %struct.Ill]* %11, i64 0, i64 %71
  %73 = getelementptr inbounds %struct.Ill, %struct.Ill* %72, i32 0, i32 1
  %74 = load i32, i32* %73, align 4
  %75 = icmp slt i32 %69, %74
  br i1 %75, label %76, label %82

76:                                               ; preds = %68
  %77 = load i32, i32* %4, align 4
  %78 = sext i32 %77 to i64
  %79 = getelementptr inbounds [100 x %struct.Ill], [100 x %struct.Ill]* %11, i64 0, i64 %78
  %80 = getelementptr inbounds %struct.Ill, %struct.Ill* %79, i32 0, i32 1
  %81 = load i32, i32* %80, align 4
  store i32 %81, i32* %5, align 4
  br label %82

82:                                               ; preds = %76, %68
  br label %83

83:                                               ; preds = %82
  %84 = load i32, i32* %4, align 4
  %85 = add nsw i32 %84, 1
  store i32 %85, i32* %4, align 4
  br label %64

86:                                               ; preds = %64
  store i32 0, i32* %4, align 4
  br label %87

87:                                               ; preds = %115, %86
  %88 = load i32, i32* %4, align 4
  %89 = load i32, i32* %7, align 4
  %90 = icmp slt i32 %88, %89
  br i1 %90, label %91, label %118

91:                                               ; preds = %87
  %92 = load i32, i32* %4, align 4
  %93 = sext i32 %92 to i64
  %94 = getelementptr inbounds [100 x %struct.Ill], [100 x %struct.Ill]* %11, i64 0, i64 %93
  %95 = getelementptr inbounds %struct.Ill, %struct.Ill* %94, i32 0, i32 1
  %96 = load i32, i32* %95, align 4
  %97 = load i32, i32* %5, align 4
  %98 = icmp eq i32 %96, %97
  br i1 %98, label %99, label %114

99:                                               ; preds = %91
  %100 = load i32, i32* %6, align 4
  %101 = sext i32 %100 to i64
  %102 = getelementptr inbounds [100 x %struct.Ill], [100 x %struct.Ill]* %9, i64 0, i64 %101
  %103 = load i32, i32* %4, align 4
  %104 = sext i32 %103 to i64
  %105 = getelementptr inbounds [100 x %struct.Ill], [100 x %struct.Ill]* %11, i64 0, i64 %104
  %106 = bitcast %struct.Ill* %102 to i8*
  %107 = bitcast %struct.Ill* %105 to i8*
  call void @llvm.memcpy.p0i8.p0i8.i64(i8* align 16 %106, i8* align 16 %107, i64 16, i1 false)
  %108 = load i32, i32* %4, align 4
  %109 = sext i32 %108 to i64
  %110 = getelementptr inbounds [100 x %struct.Ill], [100 x %struct.Ill]* %11, i64 0, i64 %109
  %111 = getelementptr inbounds %struct.Ill, %struct.Ill* %110, i32 0, i32 1
  store i32 0, i32* %111, align 4
  %112 = load i32, i32* %6, align 4
  %113 = add nsw i32 %112, 1
  store i32 %113, i32* %6, align 4
  br label %118

114:                                              ; preds = %91
  br label %115

115:                                              ; preds = %114
  %116 = load i32, i32* %4, align 4
  %117 = add nsw i32 %116, 1
  store i32 %117, i32* %4, align 4
  br label %87

118:                                              ; preds = %99, %87
  br label %119

119:                                              ; preds = %118
  %120 = load i32, i32* %3, align 4
  %121 = add nsw i32 %120, 1
  store i32 %121, i32* %3, align 4
  br label %59

122:                                              ; preds = %59
  store i32 0, i32* %3, align 4
  br label %123

123:                                              ; preds = %134, %122
  %124 = load i32, i32* %3, align 4
  %125 = load i32, i32* %7, align 4
  %126 = icmp slt i32 %124, %125
  br i1 %126, label %127, label %137

127:                                              ; preds = %123
  %128 = load i32, i32* %3, align 4
  %129 = sext i32 %128 to i64
  %130 = getelementptr inbounds [100 x %struct.Ill], [100 x %struct.Ill]* %9, i64 0, i64 %129
  %131 = getelementptr inbounds %struct.Ill, %struct.Ill* %130, i32 0, i32 0
  %132 = getelementptr inbounds [10 x i8], [10 x i8]* %131, i64 0, i64 0
  %133 = call i32 (i8*, ...) @printf(i8* getelementptr inbounds ([4 x i8], [4 x i8]* @.str.2, i64 0, i64 0), i8* %132)
  br label %134

134:                                              ; preds = %127
  %135 = load i32, i32* %3, align 4
  %136 = add nsw i32 %135, 1
  store i32 %136, i32* %3, align 4
  br label %123

137:                                              ; preds = %123
  store i32 0, i32* %3, align 4
  br label %138

138:                                              ; preds = %157, %137
  %139 = load i32, i32* %3, align 4
  %140 = load i32, i32* %2, align 4
  %141 = icmp slt i32 %139, %140
  br i1 %141, label %142, label %160

142:                                              ; preds = %138
  %143 = load i32, i32* %3, align 4
  %144 = sext i32 %143 to i64
  %145 = getelementptr inbounds [100 x %struct.Ill], [100 x %struct.Ill]* %8, i64 0, i64 %144
  %146 = getelementptr inbounds %struct.Ill, %struct.Ill* %145, i32 0, i32 1
  %147 = load i32, i32* %146, align 4
  %148 = icmp slt i32 %147, 60
  br i1 %148, label %149, label %156

149:                                              ; preds = %142
  %150 = load i32, i32* %3, align 4
  %151 = sext i32 %150 to i64
  %152 = getelementptr inbounds [100 x %struct.Ill], [100 x %struct.Ill]* %8, i64 0, i64 %151
  %153 = getelementptr inbounds %struct.Ill, %struct.Ill* %152, i32 0, i32 0
  %154 = getelementptr inbounds [10 x i8], [10 x i8]* %153, i64 0, i64 0
  %155 = call i32 (i8*, ...) @printf(i8* getelementptr inbounds ([4 x i8], [4 x i8]* @.str.2, i64 0, i64 0), i8* %154)
  br label %156

156:                                              ; preds = %149, %142
  br label %157

157:                                              ; preds = %156
  %158 = load i32, i32* %3, align 4
  %159 = add nsw i32 %158, 1
  store i32 %159, i32* %3, align 4
  br label %138

160:                                              ; preds = %138
  ret i32 0
}

declare dso_local i32 @__isoc99_scanf(i8*, ...) #1

; Function Attrs: argmemonly nounwind willreturn
declare void @llvm.memcpy.p0i8.p0i8.i64(i8* noalias nocapture writeonly, i8* noalias nocapture readonly, i64, i1 immarg) #2

declare dso_local i32 @printf(i8*, ...) #1


!llvm.module.flags = !{!0}
!llvm.ident = !{!1}

!0 = !{i32 1, !"wchar_size", i32 4}
!1 = !{!"clang version 10.0.0-4ubuntu1 "}
